(lp1
VA man visits the doctor. The doctor says, "I have bad news for you. You have cancer and Alzheimer's disease".\u000a\u000aThe man replies, "Well, thank God I don't have cancer!"
p2
aVThis couple had an excellent relationship going until one day he came home from work to find his girlfriend packing. He asked her why she was leaving him and she told him that she had heard awful things about him. \u000a\u000a"What could they possibly have said to make you move out?"\u000a\u000a"They told me that you were a pedophile."\u000a\u000aHe replied, "That's an awfully big word for a ten year old."
p3
aVQ. What's 200 feet long and has 4 teeth?\u000a\u000aA. The front row at a Willie Nelson concert.
p4
aVQ. What's the difference between a man and a toilet?\u000a\u000aA. A toilet doesn't follow you around after you use it.
p5
aVQ. What's O. J. Simpson's web address?\u000a\u000aA. Slash, slash, backslash, slash, slash, escape.
p6
aVBill and Hillary Clinton are on a trip back to Arkansas. They're almost out of gas, so Bill pulls into a service station on the outskirts of town. The attendant runs out of the station to serve them when Hillary realizes it's an old boyfriend from high school. She and the attendant chat as he gases up their car and cleans the windows. Then they all say goodbye.\u000a\u000aAs Bill pulls the car onto the road, he turns to Hillary and says, "Now aren't you glad you married me and not him? You could've been the wife of a grease monkey!"\u000a\u000aTo which Hillary replied, "No, Bill. If I would have married him, you'd be pumping gas and he would be the President!"
p7
aVHow many feminists does it take to screw in a light bulb?\u000a\u000aThat's not funny.
p8
aVQ. Did you hear about the dyslexic devil worshiper?\u000a\u000aA. He sold his soul to Santa.
p9
aVA country guy goes into a city bar that has a dress code, and the maitre d' demands he wear a tie. Discouraged, the guy goes to his car to sulk when inspiration strikes: He's got jumper cables in the trunk! So he wraps them around his neck, sort of like a string tie (a bulky string tie to be sure) and returns to the bar. The maitre d' is reluctant, but says to the guy, "Okay, you're a pretty resourceful fellow, you can come in... but just don't start anything!"
p10
aVTwo cannibals are eating a clown. One turns to the other and says:\u000a\u000a"Does this taste funny to you?"
p11
aVQ. What do a hurricane, a tornado, and a redneck divorce all have in common?\u000a\u000aA. Someone's going to lose a trailer...
p12
aVA guy stood over his tee shot for what seemed an eternity, looking up, looking down, measuring the distance, figuring the wind direction and speed, and driving his partner nuts.\u000a\u000aFinally his exasperated partner says, "What the hell is taking so long? Hit the goddamn ball!" The guy answers, "My wife is up there watching me from the clubhouse. I want to make this a perfect shot." "Well, hell, man, you don't stand a snowball's chance in hell of hitting her from here!"
p13
aVThey asked the Japanese visitor if they have elections in his country.\u000a\u000a"Every morning," he answers.
p14
aVThe father was very anxious to marry off his only daughter so he wanted to impress her date. "Do you like to screw?" he asks. "Huh?" replied the surprised first date. "My daughter, she loves to screw and she's good at it: you and her should go screw," the father carefully explained. Now very interested, the boy replied, "Yes, sir." Minutes later the girl came down the stairs, kissed her father goodbye and the couple left. After only a few minutes she reappeared, furious, dress torn, hair a mess and screamed, "Dammit, Daddy, it's the TWIST, get it straight!"
p15
aVQ: What did the blind person say when given some matzah?\u000a\u000aA: Who the hell wrote this?
p16
aVQ. What is orange and sounds like a parrot?\u000a\u000aA. A carrot.
p17
aVHow many men does it take to screw in a light bulb?\u000a\u000aOne. Men will screw anything.
p18
aVA dog walks into Western Union and asks the clerk to send a telegram. He fills out a form on which he writes down the telegram he wishes to send: "Bow wow wow, bow wow wow."\u000a\u000aThe clerk says, "You can add another 'Bow wow' for the same price."\u000a\u000aThe dog responded, "Now wouldn't that sound a little silly?"
p19
aVQ: If a person who speaks three languages is called "trilingual," and a person who speaks two languages is called "bilingual," what do you call a person who only speaks one language?\u000a\u000aA: American!
p20
aVWhat's the difference between a Macintosh and an Etch-a-Sketch?\u000a\u000aYou don't have to shake the Mac to clear the screen.
p21
aVWhat's the difference between a used tire and 365 used condoms?\u000a\u000aOne's a Goodyear, the other's a great year.
p22
aVA duck walks into a pharmacy and asks for a condom. The pharmacist asks, "Would you like me to stick that on your bill?" The duck says:\u000a\u000a"What kind of duck do you think I am!"
p23
aVQ: What is the Australian word for a boomerang that won't come back?\u000a\u000aA: A stick.
p24
aVWhat do you get when you run over a parakeet with a lawnmower?\u000a\u000aShredded tweet.
p25
aVTwo kindergarten girls were talking outside: one said, "You won't believe what I saw on the patio yesterday....a condom!"\u000a\u000aThe second girl asked, "What's a patio?"
p26
aVA guy walks into a bar and sits down next to an extremely gorgeous woman. The first thing he notices about her though, are her pants. They were skin-tight, high-waisted and had no obvious mechanism (zipper, buttons or velcro) for opening them. \u000a\u000aAfter several minutes of puzzling over how she got the pants up over her hips, he finally worked up the nerve to ask her. "Excuse me miss, but how do you get into your pants?" \u000a\u000a"Well," she replied, "you can start by buying me a drink."
p27
aVBill Clinton returns from a vacation in Arkansas and walks down the steps of Air Force One with two pigs under his arms. At the bottom of the steps, he says to the honor guardsman, "These are genuine Arkansas Razor-Back Hogs. I got this one for Chelsea and this one for Hillary."\u000a\u000aThe guardsman replies, "Nice trade, Sir."
p28
aVA mechanical engineer, an electrical engineer, and a software engineer from Microsoft were driving through the desert when the car broke down.\u000a\u000aThe mechanical engineer said: "It seems to be a problem with the fuel injection system, why don't we pop the hood and I'll take a look at it?" To which the electrical engineer replied, "No, I think it's just a loose ground wire, I'll get out and take a look."\u000a\u000aThen the software engineer from Microsoft jumps in. "No, no, no. If we just close up all the windows, get out, wait a few minutes, get back in, and then reopen the windows everything will work fine."
p29
aVAn old Scotsman is sitting with a younger Scottish gentleman and says to the boy, "Ah, lad, look out that window. You see that stone wall there? I built it with me own bare hands, placed every stone meself. But do they call me MacGregor the wall builder? No!"\u000a\u000aHe takes a few sips of his beer then says, "Aye, and look out on that lake and eye that beautiful pier. I built it meself, laid every board and hammered each nail, but do they call me MacGregor the pier builder? No!"\u000a\u000aHe continues: "And lad, you see that road? That too I build with me own bare hands. Laid every inch of pavement meself, but do they call MacGregor the road builder? No!"\u000a\u000aAgain he returns to his beer for a few sips, and then says, "Agh, but you screw one sheep..."
p30
aVQ: What's the difference between a lawyer and a plumber? \u000a\u000aA: A plumber works to unclog the system.
p31
aVPresident Clinton looks up from his desk in the Oval Office to see one of his aides nervously approach him.\u000a\u000a"What is it?" exclaims the President.\u000a\u000a"It's this Abortion Bill, Mr. President. What do you want to do about it?" the aide asks.\u000a\u000a"Just go ahead and pay it," responds the President.
p32
aVA man arrives at the gates of heaven. St. Peter asks, "Religion?" The man says, "Methodist." St. Peter looks down his list, and says, "Go to room 24, but be very quiet as you pass room 8."\u000a\u000aAnother man arrives at the gates of heaven. "Religion?" "Baptist." "Go to room 18, but be very quiet as you pass room 8."\u000a\u000aA third man arrives at the gates. "Religion?" "Jewish." "Go to room 11, but be very quiet as you pass room 8." The man says, "I can understand there being different rooms for different religions, but why must I be quiet when I pass room 8?" St. Peter tells him, "Well, the Catholics are in room 8, and they think they're the only ones here."
p33
aVWhat do you call an American in the finals of the world cup?\u000a\u000a"Hey beer man!"
p34
aVOut in the backwoods of some midwestern state, little Johnny arrives at school an hour late.\u000a\u000aTeacher: "Why are you so late, John?"\u000aJohny: "My big brother got shot in the ass."\u000a(The teacher corrects his speech.)\u000aTeacher: "Rectum."\u000aJohnny: "Wrecked him!? Hell, It damn near killed him!"
p35
aVAn explorer in the deepest Amazon suddenly finds himself surrounded by a bloodthirsty group of natives. Upon surveying the situation, he says quietly to himself, "Oh God, I'm screwed."\u000a\u000aThe sky darkens and a voice booms out, "No, you are NOT screwed. Pick up that stone at your feet and bash in the head of the chief standing in front of you."\u000a\u000aSo with the stone he bashes the life out of the chief. He stands above the lifeless body, breathing heavily and looking at 100 angry natives...\u000a\u000aThe voice booms out again, "Okay....NOW you're screwed."
p36
aVA guy walks into a bar, orders a beer and says to the bartender, "Hey, I got this great Polish Joke..."\u000a\u000aThe barkeep glares at him and says in a warning tone of voice: "Before you go telling that joke you better know that I'm Polish, both bouncers are Polish and so are most of my customers."\u000a\u000a"Okay," says the customer. "I'll tell it very slowly."
p37
aVA Jewish young man was seeing a psychiatrist for an eating and sleeping disorder.\u000a\u000a"I am so obsessed with my mother...As soon as I go to sleep, I start dreaming, and everyone in my dream turns into my mother. I wake up in such a state, and all I can do is go downstairs and eat a piece of toast."\u000a\u000aThe psychiatrist replies, "What, just one piece of toast, for a big boy like you?"
p38
aV"May I take your order?" the waiter asks.\u000a\u000a"Yes, how do you prepare your chickens?"\u000a\u000a"Nothing special, sir," he replies. "We just tell them straight out that they're going to die."
p39
aVWhat is the difference between men and women?\u000a\u000aA woman wants one man to satisfy her every need.\u000aA man wants every woman to satisfy his one need.
p40
aVHow many Irishmen does it take to change a lightbulb?\u000a\u000aTwo. One to hold the lightbulb and the other to drink until the room spins.
p41
aVWhat does an atheist say during an orgasm?\u000a\u000a"Oh Darwin! Oh Darwin!"
p42
aVTwo men are discussing the age old question: who enjoys sex more, the man or the woman? A woman walks by and listens in for a while and then interrupts:\u000a\u000a"Listen, you guys. You know when your ear itches and you put in your little finger and wiggle it around for a while? Afterward, which feels better, your finger or your ear?"
p43
aVArnold Schwarzenegger and Sylvester Stallone are making a movie about the lives of the great composers.\u000a\u000aStallone says, "I want to be Mozart."\u000a\u000aSwartzeneger says, "In that case...I'll be Bach."
p44
aVA horse walks into a bar. The bartender asks:\u000a\u000a"So, why the long face?"
p45
aVA boy comes home from school and tells his mother that he got a part in the school play. "What part?" the mother asks. "I play a Jewish husband," the boy replies.\u000a\u000a"Go back to school and tell your teacher that you want a speaking role!"
p46
aVA couple has been married for 75 years. For the husband's 95th birthday, his wife decides to surprise him by hiring a prostitute. That day, the doorbell rings. The husband uses his walker to get to the door and opens it.\u000a\u000aA 21-year-old in a latex outfit smiles and says, "Hi, I here to give you super sex!"\u000a\u000aThe old man says, "I'll take the soup."
p47
aVThere was an engineer who had an exceptional gift for fixing all things mechanical. After serving his company loyally for over 30 years, he happily retired. Several years later the company contacted him regarding a seemingly impossible problem they were having with one of their multi-million dollar machines. They had tried everything and everyone else to get the machine fixed, but to no avail. In desperation, they called on the retired engineer who had solved so many of their problems in the past.\u000a\u000aThe engineer reluctantly took the challenge. He spent a day studying the huge machine. At the end of the day, he marked a small "x" in chalk on a particular component of the machine and proudly stated:\u000a\u000a"This is where your problem is."\u000a\u000aThe part was replaced and the machine worked perfectly again. The company received a bill for $50,000 from the engineer for his service. They demanded an itemized accounting of his charges. The engineer responded briefly:\u000a\u000aOne chalk mark: $1.\u000a\u000aKnowing where to put it: $49,999.\u000a\u000aHe was paid in full and the engineer retired again in peace.
p48
aVThe graduate with a Science degree asks, "Why does it work?"\u000a\u000aThe graduate with an Engineering degree asks, "How does it work?"\u000a\u000aThe graduate with an Accounting degree Asks, "How much will it cost?"\u000a\u000aThe graduate with a Liberal Arts degree asks, "Do you want fries with that?"
p49
aVThree engineering students were gathered together discussing the possible designers of the human body.\u000a\u000aOne said, "It was a mechanical engineer. Just look at all the joints."\u000a\u000aAnother said, "No, it was an electrical engineer. The nervous systems many thousands of electrical connections."\u000a\u000aThe last said, "Actually, it was a civil engineer. Who else would run a toxic waste pipeline through a recreational area?"
p50
aVA guy goes into confession and says to the priest, "Father, I'm 80 years old, widower, with 11 grandchildren. Last night I met two beautiful flight attendants. They took me home and I made love to both of them. Twice."\u000a\u000aThe priest says, "Well, my son, when was the last time you were in confession?"\u000a\u000a"Never Father, I'm Jewish."\u000a\u000a"So then, why are you telling me?"\u000a\u000a"I'm telling everybody!"
p51
aVDid you hear that Clinton has announced that there is a new national bird?\u000a\u000aThe spread eagle.
p52
aVQ: What do Monica Lewinsky and Bob Dole have in common?\u000a\u000aA: They were both upset when Bill finished first.
p53
aVOne Sunday morning William burst into the living room and said, "Dad! Mom! I have some great news for you! I am getting married to the most beautiful girl in town. She lives a block away and her name is Susan."\u000a\u000aAfter dinner, William's dad took him aside. "Son, I have to talk with you. Your mother and I have been married 30 years. She's a wonderful wife but she has never offered much excitement in the bedroom, so I used to fool around with women a lot. Susan is actually your half-sister, and I'm afraid you can't marry her."\u000a\u000aWilliam was heart-broken. After eight months he eventually started dating girls again. A year later he came home and very proudly announced, "Dianne said yes! We're getting married in June."\u000a\u000aAgain his father insisted on another private conversation and broke the sad news. "Dianne is your half-sister too, William. I'm awfully sorry about this."\u000a\u000aWilliam was furious! He finally decided to go to his mother with the news.\u000a\u000a"Dad has done so much harm.. I guess I'm never going to get married," he complained. "Every time I fall in love, Dad tells me the girl is my half-sister."\u000a\u000aHis mother just shook her head. "Don't pay any attention to what he says, dear. He's not really your father."
p54
aVThe Pope dies and, naturally, goes to heaven. He's met by the reception committee, and after a whirlwind tour he is told that he can enjoy any of the myriad of recreations available.\u000a\u000aHe decides that he wants to read all of the ancient original text of the Holy Scriptures, so he spends the next eon or so learning languages. After becoming a linguistic master, he sits down in the library and begins to pour over every version of the Bible, working back from most recent "Easy Reading" to the original script.\u000a\u000aAll of a sudden there is a scream in the library. The angels come running in only to find the Pope huddled in his chair, crying to himself and muttering, "An 'R'! The scribes left out the 'R'!" A particularly concerned angel takes him aside, and offering comfort, asks him what the problem is and what he means.\u000a\u000aAfter collecting his wits, the Pope sobs again, "It's the letter 'R'. They left out the 'R'. The word was supposed to be 'CELEBRATE'!"
p55
aVA woman has twins, and gives them up for adoption. One of them goes to a family in Egypt and is named "Amal." The other goes to a family in Spain; they name him "Juan." Years later, Juan sends a picture of himself to his mom. Upon receiving the picture, she tells her husband that she wishes she also had a picture of Amal.\u000a\u000aHer husband responds, "But they are twins--if you've seen Juan, you've seen Amal."
p56
aVA man and Cindy Crawford get stranded on a desert island. After a couple of days they fall in love and start sleeping together. Time passes and the man seems frustrated. Cindy asks if there is anything she can do, and he says there is one thing: "Could you put on this baseball cap and go to the other side of the island and answer me when I call you Bob?" She agrees. The next day he is walking on the other side of the island and runs into her. He says, "Hi Bob!"\u000a\u000aShe says, "Hello, what's up?"\u000a\u000aHe replies, "Bob, you won't believe it: I've been sleeping with Cindy Crawford for the past two weeks!"
p57
aVWhy are there so many Jones's in the phone book?\u000a\u000aBecause they all have phones.
p58
aVHow many teddy bears does it take to change a lightbulb?\u000a\u000aIt takes only one teddy bear, but it takes a whole lot of lightbulbs.
p59
aVThe Chukcha (Russian Eskimo) phones up the Russian Parliament Building. A guard answers.\u000a\u000aChukcha: "What is required to become Parliament member?"\u000a\u000aGuard: "What are you, an idiot?"\u000a\u000aChukcha: "Is it required?"
p60
aVWhat did the Buddhist say to the hot dog vendor?\u000a\u000aMake me one with everything.
p61
aVDuring a recent publicity outing, Hillary sneaked off to visit a fortune teller of some local repute. In a dark and hazy room, peering into a crystal ball, the mystic delivered grave news.\u000a\u000a"There's no easy way to say this, so I'll just be blunt: Prepare yourself to be a widow. Your husband will die a violent and horrible death this year."\u000a\u000aVisibly shaken, Hillary stared at the woman's lined face, then at the single flickering candle, then down at her hands. She took a few deep breaths to compose herself. She simply had to know. She met the fortune teller's gaze, steadied her voice, and asked her question.\u000a\u000a"Will I be acquitted?"
p62
aVA group of managers were given the assignment to measure the height of a flagpole. So they go out to the flagpole with ladders and tape measures, and they're falling off the ladders, dropping the tape measures--the whole thing is just a mess. An engineer comes along and sees what they're trying to do, walks over, pulls the flagpole out of the ground, lays it flat, measures it from end to end, gives the measurement to one of the managers and walks away.\u000a\u000aAfter the engineer has gone, one manager turns to another and laughs. "Isn't that just like an engineer? We're looking for the height and he gives us the length."
p63
aVAn engineer, a physicist and a mathematician are sleeping in a room. There is a fire in the room. The engineer wakes up, sees the fire, picks up the bucket of water and douses the fire and goes back to sleep.\u000a\u000aAgain there is a fire in the room. This time, the physicist wakes up, notices the bucket, fills it with water, calculates the optimal trajectory and douses the fire in minimum amount of water and goes back to sleep.\u000a\u000aAgain there is a fire. This time the mathematician wakes up. He looks at the fire, looks at the bucket and the water and exclaims, "A solution exists!" and goes back to sleep.
p64
aVWhat is the rallying cry of the International Dyslexic Pride movement?\u000a\u000aDyslexics Untie!
p65
aVTwo rednecks were seated at the end of a bar when a young lady seated a few stools up began to choke on a piece of hamburger. She was turning blue and obviously in serious respiratory distress. One said to the other, "That gal there is having a bad time!" The other agreed and said, "Think we should go help?" "You bet," said the first, and with that, he ran over and said, "Can you breathe?" She shook her head no. He said, "Can you speak?" She again shook her head no. With that, he pulled up her skirt and licked her on the butt.\u000a\u000aShe was so shocked, she coughed up the obstruction and began to breathe--with great relief.\u000a\u000aThe redneck walked back to his friend and said, "Funny how that hind lick maneuver always works."
p66
aVA lawyer opened the door of his BMW, when suddenly a car came along and hit the door, ripping it off completely. When the police arrived at the scene, the lawyer was complaining bitterly about the damage to his precious BMW.\u000a\u000a"Officer, look what they've done to my Beeeeemer!" he whined.\u000a\u000a"You lawyers are so materialistic, you make me sick!" retorted the officer. "You're so worried about your stupid BMW that you didn't even notice your left arm was ripped off!"\u000a\u000a"Oh my gaaaad..." replied the lawyer, finally noticing the bloody left shoulder where his arm once was. "Where's my Rolex?!"
p67
aVOnce upon a time, two brooms fell in love and decided to get married. Before the ceremony, the bride broom informed the groom broom that she was expecting a little whiskbroom. The groom broom was aghast!\u000a\u000a"How is this possible?" he asked. "We've never swept together!"
p68
aVA man piloting a hot air balloon discovers he has wandered off course and is hopelessly lost. He descends to a lower altitude and locates a man down on the ground. He lowers the balloon further and shouts, "Excuse me, can you tell me where I am?"\u000a\u000aThe man below says, "Yes, you're in a hot air balloon, about 30 feet above this field."\u000a\u000a"You must work in Information Technology," says the balloonist.\u000a\u000a"Yes I do," replies the man. "And how did you know that?"\u000a\u000a"Well," says the balloonist, "what you told me is technically correct, but of no use to anyone."\u000a\u000aThe man below says, "You must work in management."\u000a\u000a"I do," replies the balloonist, "how did you know?"\u000a\u000a"Well," says the man, "you don't know where you are, or where you're going, but you expect my immediate help. You're in the same position you were before we met, but now it's my fault!"
p69
aVThis guy's wife asks, "Honey, if I died would you remarry?" and he replies, "Well, after a considerable period of grieving, we all need companionship, so I guess I would."\u000a\u000aShe then asks, "If I died and you remarried, would she live in this house?" and he replies, "We've spent a lot of time and money getting this house just the way we want it. I'm not going to get rid of my house, so I guess she would."\u000a\u000a"If I died and you remarried, and she lived in this house, would she sleep in our bed?" and he says, "That bed is brand new. We just paid two thousand dollars for it, and it's going to last a long time, so I guess she would."\u000a\u000aSo she asks, "If I died and you remarried, and she lived in this house, and slept in our bed, would she use my golf clubs?"\u000a\u000a"Oh no, she's left handed."
p70
aVEmployer to applicant: "In this job we need someone who is responsible."\u000a\u000aApplicant: "I'm the one you want. On my last job, every time anything went wrong, they said I was responsible."
p71
aVAt a recent Sacramento PC Users Group meeting, a company was demonstrating its latest speech- recognition software. A representative from the company was just about ready to start the demonstration and asked everyone in the room to quiet down.\u000a\u000aJust then, someone in the back of the room yelled, "Format C: Return."\u000a\u000aSomeone else chimed in: "Yes, Return."\u000a\u000aUnfortunately, the software worked.
p72
aVOn the first day of college, the Dean addressed the students, pointing out some of the rules: "The female dormitory will be out-of-bounds for all male students and the male dormitory to the female students. Anybody caught breaking this rule will be finded $20 the first time." He continued, "Anybody caught breaking this rule the second time will be fined $60. Being caught a third time will cost you a fine of $180. Are there any questions?"\u000a\u000aAt this point, a male student in the crowd inquired: "How much for a season pass?"
p73
aVQ: What is the difference between George Washington, Richard Nixon, and Bill Clinton?\u000a\u000aA: Washington couldn't tell a lie, Nixon couldn't tell the truth, and Clinton doesn't know the difference.
p74
aVQ: How many stalkers does it take to change a light bulb?\u000a\u000aA: Two. One to replace the bulb, and the other to watch it day and night.
p75
aVQ: Do you know the difference between an intelligent male and the Sasquatch?\u000a\u000aA: There have been actual reported sightings of the Sasquatch.
p76
aVThere once was a man and a woman that both got in a terrible car wreck. Both of their vehicles were completely destroyed, buy fortunately, no one was hurt. In thankfulness, the woman said to the man, "We are both okay, so we should celebrate. I have a bottle of wine in my car: let's open it." So the woman got the bottle out of the car, and handed it to the man. The man took a really big drink, and handed the woman the bottle. The woman closed the bottle and put it down. The man asked, "Aren't you going to take a drink?" The woman cleverly replied, "No, I think I'll just wait for the cops to get here."
p77
aVIf pro- is the opposite of con-, then congress must be the opposite of progress.
p78
aVQ: What's the difference between the government and the Mafia?\u000a\u000aA: One of them is organized.
p79
aVQ: Ever wonder why the IRS calls it Form 1040?\u000a\u000aA: Because for every $50 that you earn, you get 10 and they get 40.
p80
aVHillary, Bill Clinton and the Pope are sitting together on an airplane. Bill says, "I could throw one thousand-dollar bill out of this plane and make one person very happy." Hillary says, "I could throw 10 hundred-dollar bills out of the plane and make 10 people very happy."\u000a\u000aThe Pope chips in and says, "I could throw Bill out of the airplane and make the whole country happy."
p81
aVAn Asian man goes into a New York CityBank to exchange 10,000 yen for American Currency. The teller gives him $72.00. The next month the Asian man goes into the same bank with 10,000 yen and receives $62.00. He asks, "How come? Only $62.00?" The teller says "Fluctuations, fluctuations!"\u000a\u000aWhereupon the Asian man looks back at the teller and says "Fluk you Amelicans too!"
p82
aVQ: How do you keep a computer programmer in the shower all day long?\u000a\u000aA: Give them a shampoo with a label that says "rinse, lather, repeat."
p83
aVWhat a woman says: \u000a"This place is a mess! C'mon,\u000ayou and I need to clean up,\u000ayour stuff is lying on the floor and\u000ayou'll have no clothes to wear\u000aif we don't do laundry right now!"\u000a\u000aWhat a man hears: \u000a"blah, blah, blah, blah, C'mon\u000ablah, blah, blah, blah, you and I\u000ablah, blah, blah, blah, on the floor\u000ablah, blah, blah, blah, no clothes\u000ablah, blah, blah, blah, right now!"
p84
aVQ: What is the difference between mechanical engineers and civil engineers?\u000a\u000aA: Mechanical Engineers build weapons, civil engineers build targets.
p85
aVQ: How many presidents does it take to screw in a light bulb?\u000a\u000aA: It depends upon your definition of screwing a light bulb.
p86
aVA neutron walks into a bar and orders a drink. "How much do I owe you?" the neutron asks.\u000a\u000aThe bartender replies, "For you, no charge."
p87
aVA man who recently completed a routine physical examination receives a phone call from his doctor. The doctor says, "I have some good news and some bad news." The man says, "Okay, give me the good news first." The doctor says, "The good news is: you have 24 hours to live." The man replies, "Shit! That's the good news? Then what's the bad news?"\u000a\u000aThe doctor says, "The bad news is: I forgot to call you yesterday."
p88
aVA Czechoslovakian man felt his eyesight was growing steadily worse, and felt it was time to go see an optometrist.\u000a\u000aThe doctor started with some simple testing, and showed him a standard eye chart with letters of diminishing size: CRKBNWXSKZY...\u000a\u000a"Can you read this?" the doctor asked.\u000a\u000a"Read it?" the Czech answered. "Doc, I know him!"
p89
aVA radio conversation between a US naval ship and Canadian authorities...\u000a\u000aAmericans: Please divert your course 15 degrees to the North to avoid a collision.\u000a\u000aCanadians: Recommend you divert YOUR course 15 degrees to the South to avoid a collision.\u000a\u000aAmericans: This is the captain of a US Navy ship. I say again, divert YOUR course.\u000a\u000aCanadians: No. I say again, you divert YOUR course.\u000a\u000aAmericans: This is the aircraft carrier USS Lincoln, the second largest ship in the United States' Atlantic Fleet. We are accompanied by three destroyers, three cruisers and numerous support vessels. I demand that you change your course 15 degrees North, that's ONE FIVE DEGREES NORTH, or counter-measures will be undertaken to ensure the safety of this ship.\u000a\u000aCanadians: This is a lighthouse. Your call.
p90
aVQ: How many programmers does it take to change a lightbulb?\u000a\u000aA: NONE! That's a hardware problem...
p91
aVA Panda walks into a bar, sits down at a table and orders a beer and a double cheeseburger. After he is finished eating, he pulls out a gun and rips the place with gunfire. Patrons scatter and dive under chairs and tables as the bear runs out the door. After ensuring that no one is hurt, the bartender races out the door, and calls after the bear: "What the hell did you do that for?" The bear calls back, "I'm a Panda. Look it up in the dictionary."\u000a\u000aThe bartender returns, pulls out his dictionary.\u000a\u000apanda: \u005cPan"da\u005c, n. (Zo["o]l.)\u000aA small Asiatic mammal (Ailurus fulgens) having fine soft fur. It is related to the bears, and inhabits the mountains of Northern India. Eats shoots and leaves.
p92
aVEarly one morning a mother went to her sleeping son and woke him up.\u000a\u000a"Wake up, son. It's time to go to school."\u000a"But why, Mama? I don't want to go to school." \u000a"Give me two reasons why you don't want to go to school." \u000a"One, all the children hate me. Two, all the teachers hate me."\u000a"Oh, that's no reason. Come on, you have to go to school."\u000a\u000a"Give me two good reasons why I should go to school."\u000a\u000a"One, you are fifty-two years old. Two, you are the principal of the school."
p93
aVReaching the end of a job interview, the human resources person asked a young engineer fresh out of Stanford,\u000a\u000a"And what starting salary were you looking for?"\u000a\u000aThe engineer said, "In the neighborhood of $125,000 a year, depending on the benefits package."\u000a\u000aThe interviewer said, "Well, what would you say to a package of 5-weeks vacation, 14 paid holidays, full medical and dental, company matching retirement fund to 50% of salary, and a company car leased every 2 years--say, a red Corvette?"\u000a\u000aThe engineer sat up straight and said, "Wow! Are you kidding?"\u000a\u000aAnd the interviewer replied, "Yeah, but you started it."
p94
aVTwo atoms are walking down the street when one atom says to the other, "Oh, my! I've lost an electron!"\u000a\u000aThe second atom says, "Are you sure?"\u000a\u000aThe first replies, "I'm positive!"
p95
aVJust a thought...\u000a\u000aBefore criticizing someone, walk a mile in their shoes.\u000a\u000aThen, when you do criticize them, you will be a mile away and have their shoes!
p96
aVTwo attorneys went into a diner and ordered two drinks. Then they produced sandwiches from their briefcases and started to eat. The owner became quite concerned and marched over and told them, "You can't eat your own sandwiches in here!"\u000a\u000aThe attorneys looked at each other, shrugged their shoulders and then exchanged sandwiches.
p97
aVA teacher is explaining to her class how different languages use negatives differently. She says, "In all languages, a positive followed by a negative or a negative followed by a positive makes a negative. In some languages, two negatives together make a positive, while in others they make a negative. But in no language do two positives make a negative."\u000a\u000aOne of the students puts up his hand and says, "Yeah, right."
p98
aVAge and Womanhood\u000a\u000a1. Between the ages of 13 and 18...\u000aShe is like Africa, virgin and unexplored.\u000a\u000a2. Between the ages of 19 and 35...\u000aShe is like Asia, hot and exotic.\u000a\u000a3. Between the ages of 36 and 45...\u000aShe is like America, fully explored, breathtakingly beautiful, and free with her resources.\u000a\u000a4. Between the ages of 46 and 56...\u000aShe is like Europe, exhausted but still has points of interest.\u000a\u000a5. After 56 she is like Australia...\u000aEverybody knows it's down there, but who gives a damn?
p99
aVA bus station is where a bus stops.\u000aA train station is where a train stops.\u000a\u000aOn my desk I have a work station...
p100
aVQ: Whats the difference between greeting a queen and greeting the President of the United States?\u000a\u000aA: You only have to get on one knee to greet the queen.
p101
aVDid you hear about the Buddhist who refused Novocaine during a root canal? He wanted to transcend dental medication.
p102
aVA man escaped jail by digging a hole from his jail cell to the outside world. When finally his work was done, he emerged in the middle of a preschool playground.\u000a\u000a"I'm free, I'm free!" he shouted. \u000a\u000a"So what?" said a little girl. "I'm four."
p103
aVNurse: Doctor, Doctor, there's an invisible man in the waiting room!\u000a\u000aDoctor: Well, go in there and tell him that I can't see him!
p104
aVAs a pre-med student, I had to take a difficult class in physics. One day our professor was discussing a particularly complicated concept. A student rudely interrupted to ask, "Why do we have to learn this stuff?"\u000a\u000a"To save lives." The professor responded quickly and continued the lecture.\u000a\u000aA few minutes later, the same student spoke up again. "So how does physics save lives?" he persisted.\u000a\u000a"It usually keeps the idiots like you out of medical school," replied the professor.
p105
aVA couple of hunters are out in the woods in the deep south when one of them falls to the ground. He doesn't seem to be breathing, and his eyes are rolled back in his head.\u000a\u000aThe other guy whips out his cell phone and calls 911. He gasps to the operator, "My friend is dead! What can I do?"\u000a\u000aThe operator, in a calm and soothing voice, says, "Alright, take it easy. I can help. First, let's make sure he's dead."\u000a\u000aThere is silence, and then a gun shot is heard.\u000a\u000aThe hunter comes back on the line. "Okay. Now what??"
p106
aVAn engineer dies and reports to the pearly gates. St. Peter checks his dossier and says, "Ah, you''re an engineer--you're in the wrong place." So, the engineer reports to the gates of hell and is let in. Pretty soon, the engineer gets dissatisfied with the level of comfort in hell, and starts designing and building improvements. After awhile, they've got air conditioning, flush toilets and escalators, and the engineer is a pretty popular guy. One day, God calls Satan up on the telephone and says with a sneer, "So, how's it going down there in hell?"\u000a\u000aSatan replies, "Hey, things are going great. We've got air conditioning, flush toilets and escalators, and there's no telling what this engineer is going to come up with next."\u000a\u000aGod replies, "What?? You've got an engineer? That's a mistake--he should never have gotten down there; send him up here."\u000a\u000aSatan says, "No way." I like having an engineer on the staff, and I'm keeping him."\u000a\u000aGod says, "Send him back up here or I'll sue."\u000a\u000aSatan laughs uproariously and answers, "Yeah, right. And just where are YOU going to get a lawyer?"
p107
aV(A) The Japanese eat very little fat and suffer fewer heart attacks than the British or Americans. \u000a\u000a(B) On the other hand, the French eat a lot of fat and also suffer fewer heart attacks than the British or Americans. \u000a\u000a(C) The Chinese drink very little red wine and suffer fewer heart attacks than the British or Americans. \u000a\u000a(D) The Italians drink excessive amounts of red wine and also suffer fewer heart attacks than the British or Americans.\u000a\u000a(E) Conclusion: Eat and drink what you like. It's speaking English that kills you.
p108
aVA man approached a very beautiful woman in a large supermarket and asked, "You know, I've lost my wife here in the supermarket. Can you talk to me for a couple of minutes?" \u000a\u000a"Why?" \u000a\u000a"Because every time I talk to a beautiful woman my wife appears out of nowhere."
p109
aV"Do you believe in life after death?" the boss asked one of his employees.\u000a\u000a"Yes, sir," the new recruit replied. \u000a\u000a"Well, then, that makes everything just fine..." the boss went on. \u000a\u000a"After you left early yesterday to go to your grandmother's funeral, she stopped in to see you."
p110
aVOne day, a professor was giving a big test to his students. He handed out the tests and went back to his desk to wait. Once the test was over, the students all handed the tests back in.\u000a\u000aThe professor noticed that one of the students had attached a $100 bill to his test with a note saying: "A dollar per point."\u000a\u000aThe next class the professor handed the tests back out. This student got back his test...and $64 change!
p111
aVA new business was opening and one of the owner's friends wanted to send him flowers for the occasion. They arrived at the new business site and the owner read the card, "Rest in Peace."\u000a\u000aThe owner was angry and called the florist to complain.\u000a\u000aAfter he had told the florist of the obvious mistake and how angry he was, the florist replied, "Sir, I'm really sorry for the mistake, but rather than getting angry, you should imagine this: somewhere there is a funeral taking place today, and they have flowers with a note saying, 'Congratulations on your new location!'"
p112
aVWhen my three-year-old son opened the birthday gift from his grandmother, he discovered a water pistol. He squealed with delight and headed for the nearest sink. I was not so pleased. I turned to Mom and said, "I'm surprised at you. Don't you remember how we used to drive you crazy with water guns?"\u000a\u000aMom smiled and then replied..."I remember."
p113
aVThe new employee stood before the paper shredder looking confused.\u000a\u000a"Need some help?" a secretary asked.\u000a\u000a"Yes," he replied. "How does this thing work?"\u000a\u000a"Simple," she said, taking the fat report from his hand and feeding it into the shredder.\u000a\u000a"Thanks, but where do the copies come out?"
p114
aVSherlock Holmes and Dr. Watson go on a camping trip, set up their tent, and fall asleep. Some hours later, Holmes wakes his faithful friend. "Watson, look up at the sky and tell me what you see." \u000a\u000aWatson replies, "I see millions of stars." \u000a\u000a"What does that tell you?" \u000a\u000aWatson ponders for a minute. "Astronomically speaking, it tells me that there are millions of galaxies and potentially billions of planets. Astrologically, it tells me that Saturn is in Leo. Timewise, it appears to be approximately a quarter past three. Theologically, it's evident the Lord is all-powerful and we are small and insignificant. Meteorologically, it seems we will have a beautiful day tomorrow. What does it tell you?" \u000a\u000aHolmes is silent for a moment, then speaks. "Watson, you idiot, someone has stolen our tent."
p115
aVA lady bought a new Lexus. It cost a bundle. Two days later, she brought it back, complaining that the radio was not working.\u000a\u000a"Madam," said the sales manager, "the audio system in this car is completely automatic. All you need to do is tell it what you want to listen to, and you will hear exactly that!"\u000a\u000aShe drove out, somewhat amazed and a little confused. She looked at the radio and said, "Nelson." The radio responded, "Ricky or Willie?" She was astounded. If she wanted Beethoven, that's what she got. If she wanted Nat King Cole, she got it.\u000a\u000aShe was stopped at a traffic light enjoying "On the Road Again" when the light turned green and she pulled out. Suddenly an enormous sports utility vehicle coming from the street she was crossing sped toward her, obviously not paying attention to the light. She swerved and narrowly missed a collision.\u000a\u000a"Idiot!" she yelled and, from the radio, "Ladies and gentlemen, the President of the United States."
p116
aVA man in a hot air balloon realized he was lost. He reduced altitude and spotted a woman below.\u000a\u000aHe descended a bit more and shouted, "Excuse me, can you help me? I promised a friend I would meet him an hour ago, but I don't know where I am."\u000a\u000aThe woman below replied, "You are in a hot air balloon hovering approximately 30 feet above the ground. You are between 40 and 41 degrees north latitude and between 59 and 60 degrees west longitude."\u000a\u000a"You must be an engineer," said the balloonist.\u000a\u000a"I am," replied the woman. "How did you know?"\u000a\u000a"Well," answered the balloonist, "everything you told me is technically correct, but I have no idea what to make of your information, and the fact is, I am still lost. Frankly, you've not been much help so far."\u000a\u000aThe woman below responded, "You must be in management."\u000a\u000a"I am," replied the balloonist, "but how did you know?" \u000a\u000a"Well," said the woman, "you don't know where you are or where you are going. You have risen to where you are due to a large quantity of hot air. You made a promise that you have no idea how to keep, and you expect people beneath you to solve your problems. The fact is, you are in exactly the same position you were in before we met, but now, somehow, it's my fault!"
p117
aVA man joins a big corporate empire as a trainee.\u000a\u000aOn his very first day of work, he dials the pantry and shouts into the phone: "Get me a coffee, quickly!"\u000a\u000aThe voice from the other side responds, "You fool, you've dialed the wrong extension! Do you know who you're talking to, dumbo?"\u000a\u000a"No," replied the trainee.\u000a"It's the CEO of the company, you fool!"\u000a\u000aThe trainee shouts back, "And do YOU know who YOU are talking to, you fool?!"\u000a"No." replied the CEO indignantly.\u000a\u000a"Good!" replied the trainee, and puts down the phone.
p118
aVA man goes into a drug store and asks the pharmacist if he can give him something for the hiccups. \u000a\u000aThe pharmacist promptly reaches out and slaps the man's face. \u000a\u000a"What the heck did you do that for?!" the man screams. \u000a\u000a"Well, you don't have the hiccups anymore, do you?" \u000a\u000aThe man says, "No I don't, you IDIOT...but my wife out in the car still does!"
p119
aVOne day the first grade teacher was reading the story of the Three Little Pigs to her class. She came to the part of the story where the first pig was trying to accumulate the building materials for his home. She read, "...and so the pig went up to the man with the wheelbarrow full of straw and said, 'Pardon me sir, but may I have some of that straw to build my house?'"\u000a\u000aThe teacher paused then asked the class, "And what do you think that man said?" \u000a\u000aOne little boy raised his hand and said, "I know...he said, 'Holy Shit! A talking pig!'"
p120
aVJudy was having trouble with her computer, so she called Tony, the computer guy, over to her desk. Tony clicked a couple buttons and solved the problem. As he was walking away, Judy called after him, "So, what was wrong?"\u000a\u000aAnd he replied, "It was an ID Ten T Error."\u000a\u000aA puzzled expression ran riot over Judy's face. "An ID Ten T Error? What's that...in case I need to fix it again?"\u000a\u000aHe gave her a grin..."Haven't you ever heard of an ID Ten T Error before?"\u000a\u000a"No," replied Judy.\u000a\u000a"Write it down," he said, "and I think you'll figure it out."\u000a\u000a(She wrote...) I D 1 0 T
p121
aVA drunk staggers into a Catholic Church, enters a confessional booth, sits down, but says nothing. \u000aThe Priest coughs a few times to get his attention but the drunk just sits there. \u000a\u000aFinally, the Priest pounds three times on the wall.\u000a\u000aThe drunk mumbles, "Ain't no use knockin, there's no paper on this side either."
p122
aVAn astronomer, a physicist and a mathematician (it is said) were holidaying in Scotland. Glancing from a train window, they observed a black sheep in the middle of a field.\u000a\u000a"How interesting," observed the astronomer, "All Scottish sheep are black!"\u000a\u000aTo which the physicist responded, "No, no! Some Scottish sheep are black!"\u000a\u000aThe mathematician gazed heavenward in supplication, and then intoned, "In Scotland there exists at least one field, containing at least one sheep, at least one side of which is black."
p123
aVWhen most people claim to be "killing time", it's only an expression. When Chuck Norris kills time, the minutes actually cease to exist.
p124
aVPerson 1: Hey, wanna hear a great knock-knock joke?\u000aPerson 2: Sure, What is it?\u000aPerson 1: Okay, you start.\u000aPerson 2: Knock-knock.\u000aPerson 1: Who's there?\u000aPerson 2: ...\u000aPerson 1: Hah!
p125
aVAn American tourist goes into a restaurant in Spain and orders the specialty of the house. When his dinner arrives, he asks the waiter what it is. \u000a\u000a"These, senor," replied the waiter in broken English, "are the testicles of the bull killed in the ring today."\u000a\u000aThe tourist swallowed hard but tasted the dish and thought it was delicious. So he comes back the next evening and orders the same item. When it is served, he says to the waiter, "These testicles...are much smaller than the ones I had last night." \u000a\u000a"Yes, senor," replied the waiter, "You see...the bull, he does not always lose.
p126
aVA Briton, a Frenchman and a Russian are viewing a painting of Adam and Eve frolicking in the Garden of Eden. "Look at their reserve, their calm," muses the Brit. "They must be British."\u000a\u000a"Nonsense," the Frenchman disagrees. "They're naked, and so beautiful. Clearly, they are French."\u000a\u000a"No way! They have no clothes and no shelter," the Russian points out, "They have only an apple to eat, and they are being told they live in a paradise. Obviously, they are Russian."
p127
aVA little boy goes to his dad and asks, "What is politics?"\u000a\u000aHis dad says, "Well son, let me try to explain it this way: I'm the breadwinner of the family, so let's call me capitalism. Your Mom, she's the administrator of the money, so we'll call her the government. We're here to take care of your needs, so we'll call you the people. The nanny, we'll consider her the working class. And your baby brother, we'll call him the future. Now, think about that and see if that makes sense."\u000a\u000aSo the little boy goes off to bed thinking about what dad had said. Later that night, he hears his baby brother crying, so he gets up to check on him. He finds that the baby has severely soiled his diaper. So the little boy goes to his parents' room and finds his mother sound asleep. Not wanting to wake her, he goes to the nanny's room. Finding the door locked, he peeks in the keyhole and sees his father in bed with the nanny. He gives up and goes back to bed. The next morning, the little boy says to his father, "Dad, I think I understand the concept of politics now." The father says, "Good, son. Tell me in your own words what you think politics is all about."\u000a\u000aThe little boy replies, "Well, while capitalism is screwing the working class, the government is sound asleep, the people are being ignored and the future is in deep shit."
p128
aVAn American, a Scot and a Canadian were in a terrible car accident. They were all brought to the same emergency room, but all three of them died before they arrived.\u000a\u000aJust as they were about to put the toe tag on the American, he stirred and opened his eyes. Astonished, the doctors and nurses present asked him what happened.\u000a\u000a"Well," said the American, "I remember the crash, and then there was a beautiful light, and then the Canadian and the Scot and I were standing at the gate s of heaven. St. Peter approached us and said that we were all to young to die, and that for a donation of $50, we could return to earth. So of course I pulled out my wallet and gave him the $50, and the next thing I knew I was back here."\u000a\u000a"That's amazing!" said the one of the doctors, "But what happened to the other two?"\u000a\u000a"Last I saw them," replied the American, "the Scot was haggling over the price and the Canadian was waiting for the government to pay his."
p129
aVA group of girlfriends is on vacation when they see a 5-story hotel with a sign that reads: "For Women Only." Since they are without their boyfriends and husbands, they decide to go in. \u000a\u000aThe bouncer, a very attractive guy, explains to them how it works. "We have 5 floors. Go up floor by floor, and once you find what you are looking for, you can stay there. It's easy to decide since each floor has a sign telling you what's inside." \u000a\u000aSo they start going up and on the first floor the sign reads: "All the men on this floor are short and plain." The friends laugh and without hesitation move on to the next floor. \u000a\u000aThe sign on the second floor reads: "All the men here are short and handsome." Still, this isn't good enough, so the friends continue on up. \u000a\u000aThey reach the third floor and the sign reads: "All the men here are tall and plain." \u000a\u000aThey still want to do better, and so, knowing there are still two floors left, they continued on up. \u000a\u000aOn the fourth floor, the sign is perfect: "All the men here are tall and handsome." The women get all excited and are going in when they realize that there is still one floor left. Wondering what they are missing, they head on up to the fifth floor. \u000a\u000aThere they find a sign that reads: "There are no men here. This floor was built only to prove that there is no way to please a woman."
p130
aVAn old man goes to the doctor for his yearly physical, his wife tagging along. When the doctor enters the examination room, he tells the old man, "I need a urine sample, a stool sample and a sperm sample."\u000a\u000aThe old man, being hard of hearing, looks at his wife and yells: "WHAT? What did he say? What's he want?"\u000a\u000aHis wife yells back, "He needs your underwear."
p131
aVA guy had been feeling down for so long that he finally decided to seek the aid of a psychiatrist.\u000a\u000aHe went there, lay on the couch, spilled his guts then waited for the profound wisdom of the psychiatrist to make him feel better.\u000a\u000aThe psychiatrist asked me a few questions, took some notes then sat thinking in silence for a few minutes with a puzzled look on his face.\u000a\u000aHe looked up with an expression of delight and said, "I think your problem is low self-esteem. It is very common among losers."
p132
aVMickey Mouse is having a nasty divorce with Minnie Mouse. Mickey spoke to the judge about the separation.\u000a\u000a"I'm sorry Mickey, but I can't legally separate you two on the grounds that Minnie is mentally insane..."\u000a\u000aMickey replied, "I didn't say she was mentally insane, I said that she's fucking Goofy!"
p133
aVThe new employee stood before the paper shredder looking confused. "Need some help?" a secretary, walking by, asked. "Yes," he replied, "how does this thing work?" "Simple," she said, taking the fat report from his hand and feeding it into the shredder.\u000a\u000a"Thanks, but where do the copies come out?"
p134
aVAn artist asked the gallery owner if there had been any interest in his paintings currently on display. "I've got good news and bad news," the owner replied. "The good news is that a gentleman inquired about your work and wondered if it would appreciate in value after your death. When I told him it would, he bought all fifteen of your paintings."\u000a\u000a"That's wonderful!" the artist exclaimed. "What's the bad news?"\u000a\u000aWith concern, the gallery owner replied:"The guy was your doctor."
p135
aVA guy walked past a mental hospital and heard a moaning voice: "13...13...13...13..."\u000a\u000aThe man looked over to the hospital and saw a hole in the wall. He looked through the hole and got poked in the eye. The moaning voice then groaned: "14...14...14...14..."
p136
aVA man went to apply for a job. After filling out all of his applications, he waited anxiously for the outcome.\u000a\u000aThe employer read all his applications and said, "We have an opening for people like you."\u000a\u000a"Oh, great," he said. "What is it?"\u000a\u000a"It's called the door!"
p137
aVDeep within a forest, a little turtle began to climb a tree. After hours of effort, he reached the top, jumped into the air waving his front legs and crashed to the ground. After recovering, he slowly climbed the tree again, jumped, and fell to the ground. The turtle tried again and again, while a couple of birds sitting on a branch watched his sad efforts.\u000a\u000aFinally, the female bird turned to her mate. "Dear," she chirped, "I think it's time to tell him he's adopted."
p138
aVWASHINGTON (Reuters) - A tragic fire on Monday destroyed the personal library of President George W. Bush. Both of his books have been lost.\u000a\u000aPresidential spokesman Ari Fleischer said the president was devastated, as he had not finished coloring the second one.
p139
aVIn a Veteran's Day speech, President Bush vowed, "We will finish the mission. Period." Afterwards, he was advised that he doesn't have to read the punctuation marks.
p140
aVChuck Norris' calendar goes straight from March 31st to April 2nd; no one fools Chuck Norris.
p141
aVJack Bauer can get McDonald's breakfast after 10:30.
p142
aVOne day, three men went to a shrine to ask the Father for forgiveness.\u000a\u000aThe first man went to the Father...\u000a\u000aFirst Man: "Father, Father, I have sinned!"\u000aFather: "What have you done?"\u000aFirst Man: "I have lied!"\u000aFather: "Drink the holy water and you will be saved."\u000a\u000aAnd so the man drank the water and was "saved."\u000a\u000aThe second man went up to the Father...\u000a\u000aSecond Man: "Father, Father, I have sinned!"\u000aFather: "What have you done?"\u000aSecond Man: "I have stolen from the jeweler's!"\u000aFather: "Drink the holy water and you will be saved."\u000a\u000aAnd so the second man drank the holy water and was "saved."\u000a\u000aThe third man went up to the Father...\u000a\u000aThird Man: "Father, Father, I have sinned!"\u000aFather: "What have you done?"\u000aThird Man: "I peed in the holy water!"
p143
aVA preist, a 12-year-old kid, and the smartest guy in the world are on a plane.\u000a\u000aThe pilot screams, "The plane is going down! You have to jump!" He then grabs a parachute and jumps off, leaving only two more parachutes on the plane.\u000a\u000aThe smartest guy in the world says, "I have to go. I mean, I'm the smartest guy in the world!" He grabs a parachute, and jumps.\u000a\u000aThe priest then looks at the 12-year-old kid, and says, "Go, my son. You have a long life to live."\u000a\u000aThe kid calmly responds: "Dude, chill. We'll be fine. The 'smartest guy in the world' took my backpack."
p144
aVA man is driving in the country one evening when his car stalls and won't start. He goes up to a nearby farm house for help, and because it is suppertime he is asked to stay for supper. When he sits down at the table he notices that a pig is sitting at the table with them for supper and that the pig has a wooden leg.\u000a\u000aAs they are eating and chatting, he eventually asks the farmer why the pig is there and why it has a wooden leg.\u000a\u000a"Oh," says the farmer, "that is a very special pig. Last month my wife and daughter were in the barn when it caught fire. The pig saw this, ran to the barn, tipped over a pail of water, crawled over the wet floor to reach them and pulled them out of the barn safely. A special pig like that, you just don't eat it all at once!"
p145
aVA blonde, brunette, and a red head are all lined up to be shot to death by a firing squad.\u000a\u000aThe brunette shouts, "Tornado!" and the riflemen turn around to see the tornado. It isn't there, and the brunette uses that time to escape.\u000a\u000aThe red head yells, "Lightning!" and the riflemen again turn to see the disaster, yet there is no disaster and the red head escapes.\u000a\u000aThe blonde yells, "Fire!"\u000a\u000aThe riflemen do.
p146
aVAmerica:\u000a\u000a8:00 - Welcome to work!\u000a12:00 - Lunch break\u000a17:00 - The work day is over\u000a\u000aJapan:\u000a\u000a8:00 - Are you already at work?\u000a12:00 - Continue your work\u000a17:00 - The work day is over\u000a20:00 - Please finish your work\u000a\u000aRomania:\u000a\u000a8:00 - Has anyone come to work?\u000a12:00 - Did someone start working?\u000a16:00 - Is anyone at work?
p147
aVIt was the day of the big sale. Rumors of the sale (and some advertising in the local paper) were the main reason for the long line that formed by 8:30, the store's opening time, in front of the store.\u000a\u000aA small man pushed his way to the front of the line, only to be pushed back, amid loud and colorful curses. On the man's second attempt, he was punched square in the jaw, and knocked around a bit, and then thrown to the end of the line again. As he got up the second time, he said to the person at the end of the line...\u000a\u000a"That does it! If they hit me one more time, I won't open the store!"
p148
aVRecently a teacher, a garbage collector, and a lawyer wound up together at the Pearly Gates. St. Peter informed them that in order to get into Heaven, they would each have to answer one question. \u000a\u000aSt. Peter addressed the teacher and asked, "What was the name of the ship that crashed into the iceberg? They just made a movie about it." \u000a\u000aThe teacher answered quickly, "That would be the Titanic." St. Peter let him through the gate. \u000a\u000aSt. Peter turned to the garbage man and, figuring Heaven didn't really need all the odors that this guy would bring with him, decided to make the question a little harder: "How many people died on the ship?" \u000a\u000aFortunately for him, the trash man had just seen the movie. "1,228," he answered. \u000a\u000a"That's right! You may enter."\u000a\u000aSt. Peter turned to the lawyer: "Name them."
p149
aVA little girl asked her father, "Daddy? Do all fairy tales begin with 'Once Upon a Time'?" \u000a\u000aHe replied, "No, there is a whole series of fairy tales that begin with 'If elected I promise'."
p150
aVIn an interview with David Letterman, Carter passed along an anecdote of a translation problem in Japan. Carter was speaking at a business lunch in Tokyo, where he decided to open his speech with a brief joke.\u000a\u000aHe told the joke, then waited for the translator to announce the Japanese version. Even though the story was quite short, Carter was surprised by how quickly the interpreter was able to re-tell it. Even more impressive was the reaction from the crowd. Carter thought the story was cute, but not outright hilarious, yet the crowd broke right up. Carter was very flattered.\u000a\u000aAfter the speech, Carter wanted to meet the translator to ask him how he told the joke. Perhaps there is better way to tell the joke?\u000a\u000aWhen Carter asked how the joke had been told in Japanese, the translator responded, "I told them, 'President Carter has told a very funny joke. Please laugh now.'"
p151
a.